target datalayout = "e-m:e-p270:32:32-p271:32:32-p272:64:64-i64:64-i128:128-f80:128-n8:16:32:64-S128"
target triple = "x86_64-pc-linux-gnu"

%struct.pbl_node_t = type { i32, ptr, ptr, ptr, ptr, ptr, ptr, i32 }
%struct.pbl_field_descriptor_t = type { %struct.pbl_node_t, i32, i32, ptr, ptr, i8, i8, i8, ptr, i32, %union.anon }
%union.anon = type { i64 }

@.str.12 = private unnamed_addr constant [9 x i8] c"MapEntry\00", align 1

; Function Attrs: null_pointer_is_valid sspstrong uwtable
define internal void @pbl_init_node(ptr noundef %0, ptr noundef %1, i32 noundef %2, i32 noundef %3, ptr noundef %4) #0 {
  %6 = alloca ptr, align 8
  %7 = alloca ptr, align 8
  %8 = alloca i32, align 4
  %9 = alloca i32, align 4
  %10 = alloca ptr, align 8
  store ptr %0, ptr %6, align 8
  store ptr %1, ptr %7, align 8
  store i32 %2, ptr %8, align 4
  store i32 %3, ptr %9, align 4
  store ptr %4, ptr %10, align 8
  %11 = load i32, ptr %9, align 4
  %12 = load ptr, ptr %6, align 8
  %13 = getelementptr inbounds nuw %struct.pbl_node_t, ptr %12, i32 0, i32 0
  store i32 %11, ptr %13, align 8
  %14 = load ptr, ptr %10, align 8
  %15 = call noalias ptr @g_strdup(ptr noundef %14)
  %16 = load ptr, ptr %6, align 8
  %17 = getelementptr inbounds nuw %struct.pbl_node_t, ptr %16, i32 0, i32 1
  store ptr %15, ptr %17, align 8
  %18 = load ptr, ptr %7, align 8
  %19 = load ptr, ptr %6, align 8
  %20 = getelementptr inbounds nuw %struct.pbl_node_t, ptr %19, i32 0, i32 6
  store ptr %18, ptr %20, align 8
  %21 = load i32, ptr %8, align 4
  %22 = icmp sgt i32 %21, -1
  br i1 %22, label %23, label %25

23:                                               ; preds = %5
  %24 = load i32, ptr %8, align 4
  br label %26

25:                                               ; preds = %5
  br label %26

26:                                               ; preds = %25, %23
  %27 = phi i32 [ %24, %23 ], [ -1, %25 ]
  %28 = load ptr, ptr %6, align 8
  %29 = getelementptr inbounds nuw %struct.pbl_node_t, ptr %28, i32 0, i32 7
  store i32 %27, ptr %29, align 8
  ret void
}

; Function Attrs: null_pointer_is_valid sspstrong uwtable
define hidden ptr @pbl_create_map_field_node(ptr noundef %0, i32 noundef %1, ptr noundef %2, i32 noundef %3, ptr noundef %4) #0 {
  %6 = alloca ptr, align 8
  %7 = alloca i32, align 4
  %8 = alloca ptr, align 8
  %9 = alloca i32, align 4
  %10 = alloca ptr, align 8
  %11 = alloca ptr, align 8
  %12 = alloca i64, align 8
  %13 = alloca i64, align 8
  %14 = alloca ptr, align 8
  %15 = alloca ptr, align 8
  store ptr %0, ptr %6, align 8
  store i32 %1, ptr %7, align 4
  store ptr %2, ptr %8, align 8
  store i32 %3, ptr %9, align 4
  store ptr %4, ptr %10, align 8
  call void @llvm.lifetime.start.p0(i64 8, ptr %11) #13
  call void @llvm.lifetime.start.p0(i64 8, ptr %12) #13
  store i64 1, ptr %12, align 8
  call void @llvm.lifetime.start.p0(i64 8, ptr %13) #13
  store i64 120, ptr %13, align 8
  call void @llvm.lifetime.start.p0(i64 8, ptr %14) #13
  %16 = load i64, ptr %13, align 8
  %17 = icmp eq i64 %16, 1
  br i1 %17, label %18, label %21

18:                                               ; preds = %5
  %19 = load i64, ptr %12, align 8
  %20 = call noalias ptr @g_malloc0(i64 noundef %19) #14
  store ptr %20, ptr %14, align 8
  br label %42

21:                                               ; preds = %5
  %22 = load i64, ptr %12, align 8
  %23 = call i1 @llvm.is.constant.i64(i64 %22)
  br i1 %23, label %24, label %37

24:                                               ; preds = %21
  %25 = load i64, ptr %13, align 8
  %26 = icmp eq i64 %25, 0
  br i1 %26, label %32, label %27

27:                                               ; preds = %24
  %28 = load i64, ptr %12, align 8
  %29 = load i64, ptr %13, align 8
  %30 = udiv i64 -1, %29
  %31 = icmp ule i64 %28, %30
  br i1 %31, label %32, label %37

32:                                               ; preds = %27, %24
  %33 = load i64, ptr %12, align 8
  %34 = load i64, ptr %13, align 8
  %35 = mul i64 %33, %34
  %36 = call noalias ptr @g_malloc0(i64 noundef %35) #14
  store ptr %36, ptr %14, align 8
  br label %41

37:                                               ; preds = %27, %21
  %38 = load i64, ptr %12, align 8
  %39 = load i64, ptr %13, align 8
  %40 = call noalias ptr @g_malloc0_n(i64 noundef %38, i64 noundef %39) #15
  store ptr %40, ptr %14, align 8
  br label %41

41:                                               ; preds = %37, %32
  br label %42

42:                                               ; preds = %41, %18
  %43 = load ptr, ptr %14, align 8
  store ptr %43, ptr %15, align 8
  call void @llvm.lifetime.end.p0(i64 8, ptr %14) #13
  call void @llvm.lifetime.end.p0(i64 8, ptr %13) #13
  call void @llvm.lifetime.end.p0(i64 8, ptr %12) #13
  %44 = load ptr, ptr %15, align 8
  store ptr %44, ptr %11, align 8
  %45 = load ptr, ptr %11, align 8
  %46 = getelementptr inbounds nuw %struct.pbl_field_descriptor_t, ptr %45, i32 0, i32 0
  %47 = load ptr, ptr %6, align 8
  %48 = load i32, ptr %7, align 4
  %49 = load ptr, ptr %8, align 8
  call void @pbl_init_node(ptr noundef %46, ptr noundef %47, i32 noundef %48, i32 noundef 5, ptr noundef %49)
  %50 = load i32, ptr %9, align 4
  %51 = load ptr, ptr %11, align 8
  %52 = getelementptr inbounds nuw %struct.pbl_field_descriptor_t, ptr %51, i32 0, i32 1
  store i32 %50, ptr %52, align 8
  %53 = load ptr, ptr %8, align 8
  %54 = call noalias ptr (ptr, ...) @g_strconcat(ptr noundef %53, ptr noundef @.str.12, ptr noundef null)
  %55 = load ptr, ptr %11, align 8
  %56 = getelementptr inbounds nuw %struct.pbl_field_descriptor_t, ptr %55, i32 0, i32 3
  store ptr %54, ptr %56, align 8
  %57 = load ptr, ptr %11, align 8
  %58 = getelementptr inbounds nuw %struct.pbl_field_descriptor_t, ptr %57, i32 0, i32 2
  store i32 11, ptr %58, align 4
  %59 = load ptr, ptr %11, align 8
  %60 = getelementptr inbounds nuw %struct.pbl_field_descriptor_t, ptr %59, i32 0, i32 5
  store i8 1, ptr %60, align 8
  %61 = load ptr, ptr %10, align 8
  %62 = load ptr, ptr %11, align 8
  %63 = getelementptr inbounds nuw %struct.pbl_field_descriptor_t, ptr %62, i32 0, i32 4
  store ptr %61, ptr %63, align 8
  %64 = load ptr, ptr %11, align 8
  call void @llvm.lifetime.end.p0(i64 8, ptr %11) #13
  ret ptr %64
}