; Function Attrs: null_pointer_is_valid sspstrong uwtable
define hidden noalias noundef ptr @pbl_create_map_field_node(ptr noundef %0, i32 noundef %1, ptr noundef %2, i32 noundef %3, ptr noundef %4) local_unnamed_addr #0 {
  %6 = tail call noalias dereferenceable_or_null(120) ptr @g_malloc0(i64 noundef 120) #13
  store i32 5, ptr %6, align 8
  %7 = tail call noalias ptr @g_strdup(ptr noundef %2)
  %8 = getelementptr inbounds nuw i8, ptr %6, i64 8
  store ptr %7, ptr %8, align 8
  %9 = getelementptr inbounds nuw i8, ptr %6, i64 48
  store ptr %0, ptr %9, align 8
  %10 = tail call i32 @llvm.smax.i32(i32 %1, i32 -1)
  %11 = getelementptr inbounds nuw i8, ptr %6, i64 56
  store i32 %10, ptr %11, align 8
  %12 = getelementptr inbounds nuw i8, ptr %6, i64 64
  store i32 %3, ptr %12, align 8
  %13 = tail call noalias ptr (ptr, ...) @g_strconcat(ptr noundef %2, ptr noundef nonnull @.str.12, ptr noundef null)
  %14 = getelementptr inbounds nuw i8, ptr %6, i64 72
  store ptr %13, ptr %14, align 8
  %15 = getelementptr inbounds nuw i8, ptr %6, i64 68
  store i32 11, ptr %15, align 4
  %16 = getelementptr inbounds nuw i8, ptr %6, i64 88
  store i8 1, ptr %16, align 8
  %17 = getelementptr inbounds nuw i8, ptr %6, i64 80
  store ptr %4, ptr %17, align 8
  ret ptr %6
}